target datalayout = "e-m:e-p270:32:32-p271:32:32-p272:64:64-i64:64-i128:128-f80:128-n8:16:32:64-S128"
target triple = "x86_64-pc-linux-gnu"

%"class.clang::SourceLocation" = type { i32 }
%"class.llvm::PointerIntPair.338" = type { %"struct.llvm::detail::PunnedPointer.339" }
%"struct.llvm::detail::PunnedPointer.339" = type { [8 x i8] }
%"class.llvm::PointerUnion" = type { %"class.llvm::pointer_union_detail::PointerUnionMembers" }
%"class.llvm::pointer_union_detail::PointerUnionMembers" = type { %"class.llvm::pointer_union_detail::PointerUnionMembers.340" }
%"class.llvm::pointer_union_detail::PointerUnionMembers.340" = type { %"class.llvm::pointer_union_detail::PointerUnionMembers.341" }
%"class.llvm::pointer_union_detail::PointerUnionMembers.341" = type { %"class.llvm::PointerIntPair.342" }
%"class.llvm::PointerIntPair.342" = type { %"struct.llvm::detail::PunnedPointer.343" }
%"struct.llvm::detail::PunnedPointer.343" = type { [8 x i8] }
%"class.clang::QualType" = type { %"class.llvm::PointerIntPair" }
%"class.llvm::PointerIntPair" = type { %"struct.llvm::detail::PunnedPointer" }
%"struct.llvm::detail::PunnedPointer" = type { [8 x i8] }
%"class.clang::Decl" = type <{ ptr, %"class.llvm::PointerIntPair.338", %"class.llvm::PointerUnion", %"class.clang::SourceLocation", i32, i8, [7 x i8] }>

; Function Attrs: mustprogress nounwind uwtable
define linkonce_odr hidden void @_ZN5clang4Decl11setImplicitEb(ptr noundef nonnull align 8 dereferenceable(33) %0, i1 noundef zeroext %1) #0 comdat align 2 {
  %3 = alloca ptr, align 8
  %4 = alloca i8, align 1
  store ptr %0, ptr %3, align 8
  %5 = zext i1 %1 to i8
  store i8 %5, ptr %4, align 1
  %6 = load ptr, ptr %3, align 8
  %7 = load i8, ptr %4, align 1
  %8 = trunc i8 %7 to i1
  %9 = zext i1 %8 to i32
  %10 = getelementptr inbounds nuw %"class.clang::Decl", ptr %6, i32 0, i32 4
  %11 = load i32, ptr %10, align 4
  %12 = and i32 %9, 1
  %13 = shl i32 %12, 9
  %14 = and i32 %11, -513
  %15 = or i32 %14, %13
  store i32 %15, ptr %10, align 4
  ret void
}

; Function Attrs: mustprogress nounwind uwtable
define linkonce_odr hidden void @_ZN5clang19OMPCapturedExprDeclC2ERNS_10ASTContextEPNS_11DeclContextEPNS_14IdentifierInfoENS_8QualTypeEPNS_14TypeSourceInfoENS_14SourceLocationE(ptr noundef nonnull align 8 dereferenceable(104) %0, ptr noundef nonnull align 8 dereferenceable(23096) %1, ptr noundef %2, ptr noundef %3, i64 %4, ptr noundef %5, i32 %6) unnamed_addr #0 comdat align 2 {
  %8 = alloca %"class.clang::QualType", align 8
  %9 = alloca %"class.clang::SourceLocation", align 4
  %10 = alloca ptr, align 8
  %11 = alloca ptr, align 8
  %12 = alloca ptr, align 8
  %13 = alloca ptr, align 8
  %14 = alloca ptr, align 8
  %15 = alloca %"class.clang::SourceLocation", align 4
  %16 = alloca %"class.clang::SourceLocation", align 4
  %17 = alloca %"class.clang::QualType", align 8
  %18 = getelementptr inbounds nuw %"class.clang::QualType", ptr %8, i32 0, i32 0
  %19 = getelementptr inbounds nuw %"class.llvm::PointerIntPair", ptr %18, i32 0, i32 0
  %20 = getelementptr inbounds nuw %"struct.llvm::detail::PunnedPointer", ptr %19, i32 0, i32 0
  store i64 %4, ptr %20, align 8
  %21 = getelementptr inbounds nuw %"class.clang::SourceLocation", ptr %9, i32 0, i32 0
  store i32 %6, ptr %21, align 4
  store ptr %0, ptr %10, align 8
  store ptr %1, ptr %11, align 8
  store ptr %2, ptr %12, align 8
  store ptr %3, ptr %13, align 8
  store ptr %5, ptr %14, align 8
  %22 = load ptr, ptr %10, align 8
  %23 = load ptr, ptr %11, align 8
  %24 = load ptr, ptr %12, align 8
  call void @llvm.memcpy.p0.p0.i64(ptr align 4 %15, ptr align 4 %9, i64 4, i1 false)
  call void @llvm.memcpy.p0.p0.i64(ptr align 4 %16, ptr align 4 %9, i64 4, i1 false)
  %25 = load ptr, ptr %13, align 8
  call void @llvm.memcpy.p0.p0.i64(ptr align 8 %17, ptr align 8 %8, i64 8, i1 false)
  %26 = load ptr, ptr %14, align 8
  %27 = getelementptr inbounds nuw %"class.clang::SourceLocation", ptr %15, i32 0, i32 0
  %28 = load i32, ptr %27, align 4
  %29 = getelementptr inbounds nuw %"class.clang::SourceLocation", ptr %16, i32 0, i32 0
  %30 = load i32, ptr %29, align 4
  %31 = getelementptr inbounds nuw %"class.clang::QualType", ptr %17, i32 0, i32 0
  %32 = getelementptr inbounds nuw %"class.llvm::PointerIntPair", ptr %31, i32 0, i32 0
  %33 = getelementptr inbounds nuw %"struct.llvm::detail::PunnedPointer", ptr %32, i32 0, i32 0
  %34 = load i64, ptr %33, align 8
  call void @_ZN5clang7VarDeclC2ENS_4Decl4KindERNS_10ASTContextEPNS_11DeclContextENS_14SourceLocationES7_PKNS_14IdentifierInfoENS_8QualTypeEPNS_14TypeSourceInfoENS_12StorageClassE(ptr noundef nonnull align 8 dereferenceable(100) %22, i32 noundef 41, ptr noundef nonnull align 8 dereferenceable(23096) %23, ptr noundef %24, i32 %28, i32 %30, ptr noundef %25, i64 %34, ptr noundef %26, i32 noundef 0)
  store ptr getelementptr inbounds inrange(-16, 104) ({ [15 x ptr] }, ptr @_ZTVN5clang19OMPCapturedExprDeclE, i32 0, i32 0, i32 2), ptr %22, align 8
  call void @_ZN5clang4Decl11setImplicitEb(ptr noundef nonnull align 8 dereferenceable(33) %22, i1 noundef zeroext true)
  ret void
}

; Function Attrs: mustprogress nounwind uwtable
define linkonce_odr hidden void @_ZN5clang14SourceLocationC2Ev(ptr noundef nonnull align 4 dereferenceable(4) %0) unnamed_addr #0 comdat align 2 {
  %2 = alloca ptr, align 8
  store ptr %0, ptr %2, align 8
  %3 = load ptr, ptr %2, align 8
  %4 = getelementptr inbounds nuw %"class.clang::SourceLocation", ptr %3, i32 0, i32 0
  store i32 0, ptr %4, align 4
  ret void
}

; Function Attrs: mustprogress nounwind uwtable
define dso_local noundef ptr @_ZN5clang19OMPCapturedExprDecl6CreateERNS_10ASTContextEPNS_11DeclContextEPNS_14IdentifierInfoENS_8QualTypeENS_14SourceLocationE(ptr noundef nonnull align 8 dereferenceable(23096) %0, ptr noundef %1, ptr noundef %2, i64 %3, i32 %4) #0 align 2 {
  %6 = alloca %"class.clang::QualType", align 8
  %7 = alloca %"class.clang::SourceLocation", align 4
  %8 = alloca ptr, align 8
  %9 = alloca ptr, align 8
  %10 = alloca ptr, align 8
  %11 = alloca %"class.clang::QualType", align 8
  %12 = alloca %"class.clang::QualType", align 8
  %13 = alloca %"class.clang::SourceLocation", align 4
  %14 = alloca %"class.clang::SourceLocation", align 4
  %15 = getelementptr inbounds nuw %"class.clang::QualType", ptr %6, i32 0, i32 0
  %16 = getelementptr inbounds nuw %"class.llvm::PointerIntPair", ptr %15, i32 0, i32 0
  %17 = getelementptr inbounds nuw %"struct.llvm::detail::PunnedPointer", ptr %16, i32 0, i32 0
  store i64 %3, ptr %17, align 8
  %18 = getelementptr inbounds nuw %"class.clang::SourceLocation", ptr %7, i32 0, i32 0
  store i32 %4, ptr %18, align 4
  store ptr %0, ptr %8, align 8
  store ptr %1, ptr %9, align 8
  store ptr %2, ptr %10, align 8
  %19 = load ptr, ptr %8, align 8
  %20 = load ptr, ptr %9, align 8
  %21 = call noundef ptr @_ZN5clang4DeclnwEmRKNS_10ASTContextEPNS_11DeclContextEm(i64 noundef 104, ptr noundef nonnull align 8 dereferenceable(23096) %19, ptr noundef %20, i64 noundef 0)
  %22 = load ptr, ptr %8, align 8
  %23 = load ptr, ptr %9, align 8
  %24 = load ptr, ptr %10, align 8
  call void @llvm.memcpy.p0.p0.i64(ptr align 8 %11, ptr align 8 %6, i64 8, i1 false)
  %25 = load ptr, ptr %8, align 8
  call void @llvm.memcpy.p0.p0.i64(ptr align 8 %12, ptr align 8 %6, i64 8, i1 false)
  call void @llvm.memset.p0.i64(ptr align 4 %13, i8 0, i64 4, i1 false)
  call void @_ZN5clang14SourceLocationC2Ev(ptr noundef nonnull align 4 dereferenceable(4) %13) #9
  %26 = getelementptr inbounds nuw %"class.clang::QualType", ptr %12, i32 0, i32 0
  %27 = getelementptr inbounds nuw %"class.llvm::PointerIntPair", ptr %26, i32 0, i32 0
  %28 = getelementptr inbounds nuw %"struct.llvm::detail::PunnedPointer", ptr %27, i32 0, i32 0
  %29 = load i64, ptr %28, align 8
  %30 = getelementptr inbounds nuw %"class.clang::SourceLocation", ptr %13, i32 0, i32 0
  %31 = load i32, ptr %30, align 4
  %32 = call noundef ptr @_ZNK5clang10ASTContext24getTrivialTypeSourceInfoENS_8QualTypeENS_14SourceLocationE(ptr noundef nonnull align 8 dereferenceable(23096) %25, i64 %29, i32 %31)
  call void @llvm.memcpy.p0.p0.i64(ptr align 4 %14, ptr align 4 %7, i64 4, i1 false)
  %33 = getelementptr inbounds nuw %"class.clang::QualType", ptr %11, i32 0, i32 0
  %34 = getelementptr inbounds nuw %"class.llvm::PointerIntPair", ptr %33, i32 0, i32 0
  %35 = getelementptr inbounds nuw %"struct.llvm::detail::PunnedPointer", ptr %34, i32 0, i32 0
  %36 = load i64, ptr %35, align 8
  %37 = getelementptr inbounds nuw %"class.clang::SourceLocation", ptr %14, i32 0, i32 0
  %38 = load i32, ptr %37, align 4
  call void @_ZN5clang19OMPCapturedExprDeclC2ERNS_10ASTContextEPNS_11DeclContextEPNS_14IdentifierInfoENS_8QualTypeEPNS_14TypeSourceInfoENS_14SourceLocationE(ptr noundef nonnull align 8 dereferenceable(104) %21, ptr noundef nonnull align 8 dereferenceable(23096) %22, ptr noundef %23, ptr noundef %24, i64 %36, ptr noundef %32, i32 %38)
  ret ptr %21
}