; Function Attrs: mustprogress nounwind uwtable
define dso_local noundef ptr @_ZN5clang19OMPCapturedExprDecl6CreateERNS_10ASTContextEPNS_11DeclContextEPNS_14IdentifierInfoENS_8QualTypeENS_14SourceLocationE(ptr noundef nonnull align 8 dereferenceable(23096) %0, ptr noundef %1, ptr noundef %2, i64 %3, i32 %4) local_unnamed_addr #1 align 2 {
  %6 = tail call noundef ptr @_ZN5clang4DeclnwEmRKNS_10ASTContextEPNS_11DeclContextEm(i64 noundef 104, ptr noundef nonnull align 8 dereferenceable(23096) %0, ptr noundef %1, i64 noundef 0) #10
  %7 = tail call noundef ptr @_ZNK5clang10ASTContext24getTrivialTypeSourceInfoENS_8QualTypeENS_14SourceLocationE(ptr noundef nonnull align 8 dereferenceable(23096) %0, i64 %3, i32 0) #10
  tail call void @_ZN5clang7VarDeclC2ENS_4Decl4KindERNS_10ASTContextEPNS_11DeclContextENS_14SourceLocationES7_PKNS_14IdentifierInfoENS_8QualTypeEPNS_14TypeSourceInfoENS_12StorageClassE(ptr noundef nonnull align 8 dereferenceable(100) %6, i32 noundef 41, ptr noundef nonnull align 8 dereferenceable(23096) %0, ptr noundef %1, i32 %4, i32 %4, ptr noundef %2, i64 %3, ptr noundef %7, i32 noundef 0) #10
  store ptr getelementptr inbounds inrange(-16, 104) (i8, ptr @_ZTVN5clang19OMPCapturedExprDeclE, i64 16), ptr %6, align 8
  %8 = getelementptr inbounds nuw i8, ptr %6, i64 28
  %9 = load i32, ptr %8, align 4
  %10 = or i32 %9, 512
  store i32 %10, ptr %8, align 4
  ret ptr %6
}